; Function Attrs: nounwind uwtable
define internal range(i32 -1, 1) i32 @gitdiff_index(ptr noundef readonly captures(none) %0, ptr noundef %1, ptr noundef writeonly captures(none) %2) #0 {
  %4 = alloca ptr, align 8
  %5 = load ptr, ptr @the_repository, align 8, !tbaa !31
  %6 = getelementptr inbounds nuw i8, ptr %5, i64 400
  %7 = load ptr, ptr %6, align 8, !tbaa !87
  %8 = getelementptr inbounds nuw i8, ptr %7, i64 24
  %9 = load i64, ptr %8, align 8, !tbaa !101
  %10 = trunc i64 %9 to i32
  %11 = tail call ptr @strchr(ptr noundef nonnull dereferenceable(1) %1, i32 noundef 46) #22
  %.not = icmp eq ptr %11, null
  br i1 %.not, label %67, label %12

12:                                               ; preds = %3
  %13 = getelementptr inbounds nuw i8, ptr %11, i64 1
  %14 = load i8, ptr %13, align 1, !tbaa !53
  %.not38 = icmp eq i8 %14, 46
  br i1 %.not38, label %15, label %67

15:                                               ; preds = %12
  %16 = and i64 %9, 4294967295
  %17 = ptrtoint ptr %11 to i64
  %18 = ptrtoint ptr %1 to i64
  %19 = sub i64 %17, %18
  %20 = icmp slt i64 %16, %19
  br i1 %20, label %67, label %21

21:                                               ; preds = %15
  %22 = getelementptr inbounds nuw i8, ptr %2, i64 96
  %sext = shl i64 %19, 32
  %23 = ashr exact i64 %sext, 32
  tail call void @llvm.memcpy.p0.p0.i64(ptr nonnull align 8 %22, ptr nonnull align 1 %1, i64 %23, i1 false)
  %24 = getelementptr inbounds [65 x i8], ptr %22, i64 0, i64 %23
  store i8 0, ptr %24, align 1, !tbaa !53
  %25 = getelementptr inbounds nuw i8, ptr %11, i64 2
  %26 = tail call ptr @strchr(ptr noundef nonnull dereferenceable(1) %25, i32 noundef 32) #22
  %27 = tail call ptr @strchrnul(ptr noundef nonnull %25, i32 noundef 10) #22
  %.not39 = icmp eq ptr %26, null
  %28 = icmp ult ptr %27, %26
  %or.cond = select i1 %.not39, i1 true, i1 %28
  %.033 = select i1 %or.cond, ptr %27, ptr %26
  %29 = ptrtoint ptr %.033 to i64
  %30 = ptrtoint ptr %25 to i64
  %31 = sub i64 %29, %30
  %32 = trunc i64 %31 to i32
  %33 = icmp ult i32 %10, %32
  br i1 %33, label %67, label %34

34:                                               ; preds = %21
  %35 = getelementptr inbounds nuw i8, ptr %2, i64 161
  %sext40 = shl i64 %31, 32
  %36 = ashr exact i64 %sext40, 32
  tail call void @llvm.memcpy.p0.p0.i64(ptr nonnull align 1 %35, ptr nonnull align 1 %25, i64 %36, i1 false)
  %37 = getelementptr inbounds [65 x i8], ptr %35, i64 0, i64 %36
  store i8 0, ptr %37, align 1, !tbaa !53
  %38 = load i8, ptr %.033, align 1, !tbaa !53
  %39 = icmp eq i8 %38, 32
  br i1 %39, label %40, label %67

40:                                               ; preds = %34
  %41 = getelementptr inbounds nuw i8, ptr %.033, i64 1
  %42 = getelementptr inbounds nuw i8, ptr %0, i64 8
  %43 = load i32, ptr %42, align 8, !tbaa !77
  %44 = getelementptr inbounds nuw i8, ptr %2, i64 24
  call void @llvm.lifetime.start.p0(i64 8, ptr nonnull %4) #21
  %45 = call i64 @strtoul(ptr noundef nonnull %41, ptr noundef nonnull %4, i32 noundef 8) #21
  %46 = trunc i64 %45 to i32
  store i32 %46, ptr %44, align 4, !tbaa !34
  %47 = load ptr, ptr %4, align 8, !tbaa !32
  %48 = icmp eq ptr %47, %41
  br i1 %48, label %55, label %49

49:                                               ; preds = %40
  %50 = load i8, ptr %47, align 1, !tbaa !53
  %51 = zext i8 %50 to i64
  %52 = getelementptr inbounds nuw [256 x i8], ptr @sane_ctype, i64 0, i64 %51
  %53 = load i8, ptr %52, align 1, !tbaa !53
  %54 = and i8 %53, 1
  %.not.i.i = icmp eq i8 %54, 0
  br i1 %.not.i.i, label %55, label %60

55:                                               ; preds = %49, %40
  %56 = load i32, ptr @git_gettext_enabled, align 4, !tbaa !34
  %.not4.i.i.i = icmp eq i32 %56, 0
  br i1 %.not4.i.i.i, label %_.exit.i.i, label %57

57:                                               ; preds = %55
  %58 = tail call ptr @dcgettext(ptr noundef null, ptr noundef nonnull @.str.131, i32 noundef 5) #21
  br label %_.exit.i.i

_.exit.i.i:                                       ; preds = %57, %55
  %.0.i.i.i = phi ptr [ %58, %57 ], [ @.str.131, %55 ]
  %59 = tail call i32 (ptr, ...) @error(ptr noundef %.0.i.i.i, i32 noundef %43, ptr noundef nonnull %41) #21
  br label %gitdiff_oldmode.exit

60:                                               ; preds = %49
  %61 = trunc i64 %45 to i16
  %trunc.i.i.i = and i16 %61, -4096
  switch i16 %trunc.i.i.i, label %66 [
    i16 -32768, label %62
    i16 -24576, label %canon_mode.exit.i.i
    i16 16384, label %65
  ]

62:                                               ; preds = %60
  %63 = and i32 %46, 64
  %.not.i.i.i = icmp eq i32 %63, 0
  %64 = select i1 %.not.i.i.i, i32 33188, i32 33261
  br label %canon_mode.exit.i.i

65:                                               ; preds = %60
  br label %canon_mode.exit.i.i

66:                                               ; preds = %60
  br label %canon_mode.exit.i.i

canon_mode.exit.i.i:                              ; preds = %66, %65, %62, %60
  %.0.i8.i.i = phi i32 [ %64, %62 ], [ 16384, %65 ], [ 57344, %66 ], [ 40960, %60 ]
  store i32 %.0.i8.i.i, ptr %44, align 4, !tbaa !34
  br label %gitdiff_oldmode.exit

gitdiff_oldmode.exit:                             ; preds = %_.exit.i.i, %canon_mode.exit.i.i
  %.0.i.i = phi i32 [ -1, %_.exit.i.i ], [ 0, %canon_mode.exit.i.i ]
  call void @llvm.lifetime.end.p0(i64 8, ptr nonnull %4) #21
  br label %67

67:                                               ; preds = %34, %21, %3, %12, %15, %gitdiff_oldmode.exit
  %.0 = phi i32 [ %.0.i.i, %gitdiff_oldmode.exit ], [ 0, %15 ], [ 0, %12 ], [ 0, %3 ], [ 0, %21 ], [ 0, %34 ]
  ret i32 %.0
}